target datalayout = "e-m:e-p270:32:32-p271:32:32-p272:64:64-i64:64-i128:128-f80:128-n8:16:32:64-S128"
target triple = "x86_64-pc-linux-gnu"

; Function Attrs: nounwind uwtable
define internal void @compute_sat16(ptr noundef %0, i32 noundef %1, i32 noundef %2, i32 noundef %3, ptr noundef %4, i32 noundef %5) #0 {
  %7 = alloca ptr, align 8
  %8 = alloca i32, align 4
  %9 = alloca i32, align 4
  %10 = alloca i32, align 4
  %11 = alloca ptr, align 8
  %12 = alloca i32, align 4
  %13 = alloca ptr, align 8
  %14 = alloca ptr, align 8
  %15 = alloca i32, align 4
  %16 = alloca i32, align 4
  %17 = alloca i64, align 8
  %18 = alloca i32, align 4
  store ptr %0, ptr %7, align 8, !tbaa !62
  store i32 %1, ptr %8, align 4, !tbaa !24
  store i32 %2, ptr %9, align 4, !tbaa !24
  store i32 %3, ptr %10, align 4, !tbaa !24
  store ptr %4, ptr %11, align 8, !tbaa !62
  store i32 %5, ptr %12, align 4, !tbaa !24
  call void @llvm.lifetime.start.p0(i64 8, ptr %13) #10
  %19 = load ptr, ptr %7, align 8, !tbaa !62
  store ptr %19, ptr %13, align 8, !tbaa !74
  call void @llvm.lifetime.start.p0(i64 8, ptr %14) #10
  %20 = load ptr, ptr %11, align 8, !tbaa !62
  store ptr %20, ptr %14, align 8, !tbaa !76
  %21 = load i32, ptr %8, align 4, !tbaa !24
  %22 = sdiv i32 %21, 2
  store i32 %22, ptr %8, align 4, !tbaa !24
  %23 = load i32, ptr %12, align 4, !tbaa !24
  %24 = sext i32 %23 to i64
  %25 = udiv i64 %24, 8
  %26 = trunc i64 %25 to i32
  store i32 %26, ptr %12, align 4, !tbaa !24
  %27 = load i32, ptr %12, align 4, !tbaa !24
  %28 = load ptr, ptr %14, align 8, !tbaa !76
  %29 = sext i32 %27 to i64
  %30 = getelementptr inbounds i64, ptr %28, i64 %29
  store ptr %30, ptr %14, align 8, !tbaa !76
  call void @llvm.lifetime.start.p0(i64 4, ptr %15) #10
  store i32 0, ptr %15, align 4, !tbaa !24
  br label %31

31:                                               ; preds = %77, %6
  %32 = load i32, ptr %15, align 4, !tbaa !24
  %33 = load i32, ptr %10, align 4, !tbaa !24
  %34 = icmp slt i32 %32, %33
  br i1 %34, label %36, label %35

35:                                               ; preds = %31
  store i32 2, ptr %16, align 4
  call void @llvm.lifetime.end.p0(i64 4, ptr %15) #10
  br label %80

36:                                               ; preds = %31
  call void @llvm.lifetime.start.p0(i64 8, ptr %17) #10
  store i64 0, ptr %17, align 8, !tbaa !80
  call void @llvm.lifetime.start.p0(i64 4, ptr %18) #10
  store i32 1, ptr %18, align 4, !tbaa !24
  br label %37

37:                                               ; preds = %65, %36
  %38 = load i32, ptr %18, align 4, !tbaa !24
  %39 = load i32, ptr %9, align 4, !tbaa !24
  %40 = icmp slt i32 %38, %39
  br i1 %40, label %42, label %41

41:                                               ; preds = %37
  store i32 5, ptr %16, align 4
  call void @llvm.lifetime.end.p0(i64 4, ptr %18) #10
  br label %68

42:                                               ; preds = %37
  %43 = load ptr, ptr %13, align 8, !tbaa !74
  %44 = load i32, ptr %18, align 4, !tbaa !24
  %45 = sub nsw i32 %44, 1
  %46 = sext i32 %45 to i64
  %47 = getelementptr inbounds i16, ptr %43, i64 %46
  %48 = load i16, ptr %47, align 2, !tbaa !78
  %49 = zext i16 %48 to i64
  %50 = load i64, ptr %17, align 8, !tbaa !80
  %51 = add i64 %50, %49
  store i64 %51, ptr %17, align 8, !tbaa !80
  %52 = load i64, ptr %17, align 8, !tbaa !80
  %53 = load ptr, ptr %14, align 8, !tbaa !76
  %54 = load i32, ptr %18, align 4, !tbaa !24
  %55 = load i32, ptr %12, align 4, !tbaa !24
  %56 = sub nsw i32 %54, %55
  %57 = sext i32 %56 to i64
  %58 = getelementptr inbounds i64, ptr %53, i64 %57
  %59 = load i64, ptr %58, align 8, !tbaa !80
  %60 = add i64 %52, %59
  %61 = load ptr, ptr %14, align 8, !tbaa !76
  %62 = load i32, ptr %18, align 4, !tbaa !24
  %63 = sext i32 %62 to i64
  %64 = getelementptr inbounds i64, ptr %61, i64 %63
  store i64 %60, ptr %64, align 8, !tbaa !80
  br label %65

65:                                               ; preds = %42
  %66 = load i32, ptr %18, align 4, !tbaa !24
  %67 = add nsw i32 %66, 1
  store i32 %67, ptr %18, align 4, !tbaa !24
  br label %37, !llvm.loop !92

68:                                               ; preds = %41
  %69 = load i32, ptr %8, align 4, !tbaa !24
  %70 = load ptr, ptr %13, align 8, !tbaa !74
  %71 = sext i32 %69 to i64
  %72 = getelementptr inbounds i16, ptr %70, i64 %71
  store ptr %72, ptr %13, align 8, !tbaa !74
  %73 = load i32, ptr %12, align 4, !tbaa !24
  %74 = load ptr, ptr %14, align 8, !tbaa !76
  %75 = sext i32 %73 to i64
  %76 = getelementptr inbounds i64, ptr %74, i64 %75
  store ptr %76, ptr %14, align 8, !tbaa !76
  call void @llvm.lifetime.end.p0(i64 8, ptr %17) #10
  br label %77

77:                                               ; preds = %68
  %78 = load i32, ptr %15, align 4, !tbaa !24
  %79 = add nsw i32 %78, 1
  store i32 %79, ptr %15, align 4, !tbaa !24
  br label %31, !llvm.loop !93

80:                                               ; preds = %35
  call void @llvm.lifetime.end.p0(i64 8, ptr %14) #10
  call void @llvm.lifetime.end.p0(i64 8, ptr %13) #10
  ret void
}